target datalayout = "e-m:e-p270:32:32-p271:32:32-p272:64:64-i64:64-i128:128-f80:128-n8:16:32:64-S128"
target triple = "x86_64-pc-linux-gnu"

@.str.29 = private unnamed_addr constant [27 x i8] c"Invalid truth table size.\0A\00", align 1
@.str.30 = private unnamed_addr constant [50 x i8] c"Expecting '-' after truth table before LUT size.\0A\00", align 1
@.str.31 = private unnamed_addr constant [49 x i8] c"Expecting '-' after LUT size before node count.\0A\00", align 1

; Function Attrs: nounwind uwtable
define internal i32 @Abc_TtIsHexDigit(i8 noundef signext %0) #0 {
  %2 = alloca i8, align 1
  store i8 %0, ptr %2, align 1
  %3 = load i8, ptr %2, align 1
  %4 = sext i8 %3 to i32
  %5 = icmp sge i32 %4, 48
  br i1 %5, label %6, label %10

6:                                                ; preds = %1
  %7 = load i8, ptr %2, align 1
  %8 = sext i8 %7 to i32
  %9 = icmp sle i32 %8, 57
  br i1 %9, label %28, label %10

10:                                               ; preds = %6, %1
  %11 = load i8, ptr %2, align 1
  %12 = sext i8 %11 to i32
  %13 = icmp sge i32 %12, 65
  br i1 %13, label %14, label %18

14:                                               ; preds = %10
  %15 = load i8, ptr %2, align 1
  %16 = sext i8 %15 to i32
  %17 = icmp sle i32 %16, 70
  br i1 %17, label %28, label %18

18:                                               ; preds = %14, %10
  %19 = load i8, ptr %2, align 1
  %20 = sext i8 %19 to i32
  %21 = icmp sge i32 %20, 97
  br i1 %21, label %22, label %26

22:                                               ; preds = %18
  %23 = load i8, ptr %2, align 1
  %24 = sext i8 %23 to i32
  %25 = icmp sle i32 %24, 102
  br label %26

26:                                               ; preds = %22, %18
  %27 = phi i1 [ false, %18 ], [ %25, %22 ]
  br label %28

28:                                               ; preds = %26, %14, %6
  %29 = phi i1 [ true, %14 ], [ true, %6 ], [ %27, %26 ]
  %30 = zext i1 %29 to i32
  ret i32 %30
}

; Function Attrs: nounwind uwtable
define internal ptr @Abc_UtilStrsav(ptr noundef %0) #0 {
  %2 = alloca ptr, align 8
  store ptr %0, ptr %2, align 8
  %3 = load ptr, ptr %2, align 8
  %4 = icmp ne ptr %3, null
  br i1 %4, label %5, label %13

5:                                                ; preds = %1
  %6 = load ptr, ptr %2, align 8
  %7 = call i64 @strlen(ptr noundef %6) #13
  %8 = add i64 %7, 1
  %9 = mul i64 1, %8
  %10 = call noalias ptr @malloc(i64 noundef %9) #12
  %11 = load ptr, ptr %2, align 8
  %12 = call ptr @strcpy(ptr noundef %10, ptr noundef %11) #11
  br label %14

13:                                               ; preds = %1
  br label %14

14:                                               ; preds = %13, %5
  %15 = phi ptr [ %12, %5 ], [ null, %13 ]
  ret ptr %15
}

; Function Attrs: nounwind uwtable
define i32 @Zyx_TestGetTruthTablePars(ptr noundef %0, ptr noundef %1, ptr noundef %2, ptr noundef %3, ptr noundef %4) #0 {
  %6 = alloca i32, align 4
  %7 = alloca ptr, align 8
  %8 = alloca ptr, align 8
  %9 = alloca ptr, align 8
  %10 = alloca ptr, align 8
  %11 = alloca ptr, align 8
  %12 = alloca i8, align 1
  %13 = alloca ptr, align 8
  %14 = alloca ptr, align 8
  %15 = alloca i32, align 4
  store ptr %0, ptr %7, align 8
  store ptr %1, ptr %8, align 8
  store ptr %2, ptr %9, align 8
  store ptr %3, ptr %10, align 8
  store ptr %4, ptr %11, align 8
  %16 = load ptr, ptr %7, align 8
  %17 = call ptr @Abc_UtilStrsav(ptr noundef %16)
  store ptr %17, ptr %14, align 8
  %18 = load ptr, ptr %14, align 8
  store ptr %18, ptr %13, align 8
  br label %19

19:                                               ; preds = %30, %5
  %20 = load ptr, ptr %13, align 8
  %21 = load i8, ptr %20, align 1
  %22 = icmp ne i8 %21, 0
  br i1 %22, label %23, label %33

23:                                               ; preds = %19
  %24 = load ptr, ptr %13, align 8
  %25 = load i8, ptr %24, align 1
  %26 = call i32 @Abc_TtIsHexDigit(i8 noundef signext %25)
  %27 = icmp ne i32 %26, 0
  br i1 %27, label %29, label %28

28:                                               ; preds = %23
  br label %33

29:                                               ; preds = %23
  br label %30

30:                                               ; preds = %29
  %31 = load ptr, ptr %13, align 8
  %32 = getelementptr inbounds i8, ptr %31, i32 1
  store ptr %32, ptr %13, align 8
  br label %19, !llvm.loop !122

33:                                               ; preds = %28, %19
  %34 = load ptr, ptr %13, align 8
  %35 = load i8, ptr %34, align 1
  store i8 %35, ptr %12, align 1
  %36 = load ptr, ptr %13, align 8
  store i8 0, ptr %36, align 1
  %37 = load ptr, ptr %14, align 8
  %38 = call i64 @strlen(ptr noundef %37) #13
  %39 = trunc i64 %38 to i32
  store i32 %39, ptr %15, align 4
  %40 = load i32, ptr %15, align 4
  %41 = icmp eq i32 %40, 1
  br i1 %41, label %42, label %44

42:                                               ; preds = %33
  %43 = load ptr, ptr %9, align 8
  store i32 2, ptr %43, align 4
  br label %88

44:                                               ; preds = %33
  %45 = load i32, ptr %15, align 4
  %46 = icmp eq i32 %45, 2
  br i1 %46, label %47, label %49

47:                                               ; preds = %44
  %48 = load ptr, ptr %9, align 8
  store i32 3, ptr %48, align 4
  br label %87

49:                                               ; preds = %44
  %50 = load i32, ptr %15, align 4
  %51 = icmp eq i32 %50, 4
  br i1 %51, label %52, label %54

52:                                               ; preds = %49
  %53 = load ptr, ptr %9, align 8
  store i32 4, ptr %53, align 4
  br label %86

54:                                               ; preds = %49
  %55 = load i32, ptr %15, align 4
  %56 = icmp eq i32 %55, 8
  br i1 %56, label %57, label %59

57:                                               ; preds = %54
  %58 = load ptr, ptr %9, align 8
  store i32 5, ptr %58, align 4
  br label %85

59:                                               ; preds = %54
  %60 = load i32, ptr %15, align 4
  %61 = icmp eq i32 %60, 16
  br i1 %61, label %62, label %64

62:                                               ; preds = %59
  %63 = load ptr, ptr %9, align 8
  store i32 6, ptr %63, align 4
  br label %84

64:                                               ; preds = %59
  %65 = load i32, ptr %15, align 4
  %66 = icmp eq i32 %65, 32
  br i1 %66, label %67, label %69

67:                                               ; preds = %64
  %68 = load ptr, ptr %9, align 8
  store i32 7, ptr %68, align 4
  br label %83

69:                                               ; preds = %64
  %70 = load i32, ptr %15, align 4
  %71 = icmp eq i32 %70, 64
  br i1 %71, label %72, label %74

72:                                               ; preds = %69
  %73 = load ptr, ptr %9, align 8
  store i32 8, ptr %73, align 4
  br label %82

74:                                               ; preds = %69
  %75 = load ptr, ptr %14, align 8
  %76 = icmp ne ptr %75, null
  br i1 %76, label %77, label %79

77:                                               ; preds = %74
  %78 = load ptr, ptr %14, align 8
  call void @free(ptr noundef %78) #11
  store ptr null, ptr %14, align 8
  br label %80

79:                                               ; preds = %74
  br label %80

80:                                               ; preds = %79, %77
  %81 = call i32 (ptr, ...) @printf(ptr noundef @.str.29)
  store i32 0, ptr %6, align 4
  br label %162

82:                                               ; preds = %72
  br label %83

83:                                               ; preds = %82, %67
  br label %84

84:                                               ; preds = %83, %62
  br label %85

85:                                               ; preds = %84, %57
  br label %86

86:                                               ; preds = %85, %52
  br label %87

87:                                               ; preds = %86, %47
  br label %88

88:                                               ; preds = %87, %42
  %89 = load ptr, ptr %8, align 8
  %90 = load ptr, ptr %14, align 8
  %91 = call i32 @Abc_TtReadHex(ptr noundef %89, ptr noundef %90)
  %92 = load i8, ptr %12, align 1
  %93 = load ptr, ptr %13, align 8
  store i8 %92, ptr %93, align 1
  br label %94

94:                                               ; preds = %107, %88
  %95 = load ptr, ptr %13, align 8
  %96 = load i8, ptr %95, align 1
  %97 = sext i8 %96 to i32
  %98 = icmp ne i32 %97, 0
  br i1 %98, label %99, label %105

99:                                               ; preds = %94
  %100 = load ptr, ptr %13, align 8
  %101 = getelementptr inbounds i8, ptr %100, i32 1
  store ptr %101, ptr %13, align 8
  %102 = load i8, ptr %100, align 1
  %103 = sext i8 %102 to i32
  %104 = icmp ne i32 %103, 45
  br label %105

105:                                              ; preds = %99, %94
  %106 = phi i1 [ false, %94 ], [ %104, %99 ]
  br i1 %106, label %107, label %108

107:                                              ; preds = %105
  br label %94, !llvm.loop !123

108:                                              ; preds = %105
  %109 = load ptr, ptr %13, align 8
  %110 = load i8, ptr %109, align 1
  %111 = sext i8 %110 to i32
  %112 = icmp eq i32 %111, 0
  br i1 %112, label %113, label %121

113:                                              ; preds = %108
  %114 = load ptr, ptr %14, align 8
  %115 = icmp ne ptr %114, null
  br i1 %115, label %116, label %118

116:                                              ; preds = %113
  %117 = load ptr, ptr %14, align 8
  call void @free(ptr noundef %117) #11
  store ptr null, ptr %14, align 8
  br label %119

118:                                              ; preds = %113
  br label %119

119:                                              ; preds = %118, %116
  %120 = call i32 (ptr, ...) @printf(ptr noundef @.str.30)
  store i32 0, ptr %6, align 4
  br label %162

121:                                              ; preds = %108
  %122 = load ptr, ptr %13, align 8
  %123 = call i32 @atoi(ptr noundef %122) #13
  %124 = load ptr, ptr %10, align 8
  store i32 %123, ptr %124, align 4
  br label %125

125:                                              ; preds = %138, %121
  %126 = load ptr, ptr %13, align 8
  %127 = load i8, ptr %126, align 1
  %128 = sext i8 %127 to i32
  %129 = icmp ne i32 %128, 0
  br i1 %129, label %130, label %136

130:                                              ; preds = %125
  %131 = load ptr, ptr %13, align 8
  %132 = getelementptr inbounds i8, ptr %131, i32 1
  store ptr %132, ptr %13, align 8
  %133 = load i8, ptr %131, align 1
  %134 = sext i8 %133 to i32
  %135 = icmp ne i32 %134, 45
  br label %136

136:                                              ; preds = %130, %125
  %137 = phi i1 [ false, %125 ], [ %135, %130 ]
  br i1 %137, label %138, label %139

138:                                              ; preds = %136
  br label %125, !llvm.loop !124

139:                                              ; preds = %136
  %140 = load ptr, ptr %13, align 8
  %141 = load i8, ptr %140, align 1
  %142 = sext i8 %141 to i32
  %143 = icmp eq i32 %142, 0
  br i1 %143, label %144, label %152

144:                                              ; preds = %139
  %145 = load ptr, ptr %14, align 8
  %146 = icmp ne ptr %145, null
  br i1 %146, label %147, label %149

147:                                              ; preds = %144
  %148 = load ptr, ptr %14, align 8
  call void @free(ptr noundef %148) #11
  store ptr null, ptr %14, align 8
  br label %150

149:                                              ; preds = %144
  br label %150

150:                                              ; preds = %149, %147
  %151 = call i32 (ptr, ...) @printf(ptr noundef @.str.31)
  store i32 0, ptr %6, align 4
  br label %162

152:                                              ; preds = %139
  %153 = load ptr, ptr %13, align 8
  %154 = call i32 @atoi(ptr noundef %153) #13
  %155 = load ptr, ptr %11, align 8
  store i32 %154, ptr %155, align 4
  %156 = load ptr, ptr %14, align 8
  %157 = icmp ne ptr %156, null
  br i1 %157, label %158, label %160

158:                                              ; preds = %152
  %159 = load ptr, ptr %14, align 8
  call void @free(ptr noundef %159) #11
  store ptr null, ptr %14, align 8
  br label %161

160:                                              ; preds = %152
  br label %161

161:                                              ; preds = %160, %158
  store i32 1, ptr %6, align 4
  br label %162

162:                                              ; preds = %161, %150, %119, %80
  %163 = load i32, ptr %6, align 4
  ret i32 %163
}