; Function Attrs: nounwind uwtable
define range(i32 0, 2) i32 @Zyx_TestGetTruthTablePars(ptr noundef readonly %0, ptr noundef captures(none) %1, ptr noundef writeonly captures(none) %2, ptr noundef writeonly captures(none) %3, ptr noundef writeonly captures(none) %4) local_unnamed_addr #2 {
Abc_UtilStrsav.exit:
  %.not.i = icmp ne ptr %0, null
  tail call void @llvm.assume(i1 %.not.i)
  %5 = tail call i64 @strlen(ptr noundef nonnull readonly dereferenceable(1) %0) #25
  %6 = add i64 %5, 1
  %7 = tail call noalias ptr @malloc(i64 noundef %6) #21
  %8 = tail call ptr @strcpy(ptr noundef nonnull dereferenceable(1) %7, ptr noundef nonnull readonly dereferenceable(1) %0) #22
  %9 = load i8, ptr %7, align 1
  %.not66 = icmp eq i8 %9, 0
  br i1 %.not66, label %._crit_edge, label %.lr.ph

.lr.ph:                                           ; preds = %Abc_UtilStrsav.exit, %15
  %10 = phi i8 [ %17, %15 ], [ %9, %Abc_UtilStrsav.exit ]
  %.04667 = phi ptr [ %16, %15 ], [ %7, %Abc_UtilStrsav.exit ]
  %11 = add i8 %10, -58
  %or.cond.i = icmp ult i8 %11, -10
  %12 = and i8 %10, -33
  %13 = add i8 %12, -71
  %14 = icmp ult i8 %13, -6
  %narrow.i.not = and i1 %or.cond.i, %14
  br i1 %narrow.i.not, label %._crit_edge, label %15

15:                                               ; preds = %.lr.ph
  %16 = getelementptr inbounds nuw i8, ptr %.04667, i64 1
  %17 = load i8, ptr %16, align 1
  %.not = icmp eq i8 %17, 0
  br i1 %.not, label %._crit_edge, label %.lr.ph, !llvm.loop !129

._crit_edge:                                      ; preds = %15, %.lr.ph, %Abc_UtilStrsav.exit
  %.046.lcssa = phi ptr [ %7, %Abc_UtilStrsav.exit ], [ %.04667, %.lr.ph ], [ %16, %15 ]
  %.lcssa65 = phi i8 [ 0, %Abc_UtilStrsav.exit ], [ %10, %.lr.ph ], [ 0, %15 ]
  store i8 0, ptr %.046.lcssa, align 1
  %18 = tail call i64 @strlen(ptr noundef nonnull dereferenceable(1) %7) #25
  %19 = trunc i64 %18 to i32
  switch i32 %19, label %26 [
    i32 1, label %27
    i32 2, label %20
    i32 4, label %21
    i32 8, label %22
    i32 16, label %23
    i32 32, label %24
    i32 64, label %25
  ]

20:                                               ; preds = %._crit_edge
  br label %27

21:                                               ; preds = %._crit_edge
  br label %27

22:                                               ; preds = %._crit_edge
  br label %27

23:                                               ; preds = %._crit_edge
  br label %27

24:                                               ; preds = %._crit_edge
  br label %27

25:                                               ; preds = %._crit_edge
  br label %27

26:                                               ; preds = %._crit_edge
  tail call void @free(ptr noundef nonnull %7) #22
  %puts = tail call i32 @puts(ptr nonnull dereferenceable(1) @str.7)
  br label %40

27:                                               ; preds = %._crit_edge, %20, %22, %24, %25, %23, %21
  %.sink = phi i32 [ 3, %20 ], [ 5, %22 ], [ 7, %24 ], [ 8, %25 ], [ 6, %23 ], [ 4, %21 ], [ 2, %._crit_edge ]
  store i32 %.sink, ptr %2, align 4
  tail call fastcc void @Abc_TtReadHex(ptr noundef %1, ptr noundef nonnull %7)
  store i8 %.lcssa65, ptr %.046.lcssa, align 1
  %.not5672 = icmp eq i8 %.lcssa65, 0
  br i1 %.not5672, label %.critedge.thread, label %.lr.ph75

thread-pre-split:                                 ; preds = %.lr.ph75
  br i1 %30, label %.critedge.thread, label %.lr.ph75

.lr.ph75:                                         ; preds = %27, %thread-pre-split
  %.173 = phi ptr [ %29, %thread-pre-split ], [ %.046.lcssa, %27 ]
  %28 = phi i8 [ %.pre.pre, %thread-pre-split ], [ %.lcssa65, %27 ]
  %29 = getelementptr inbounds nuw i8, ptr %.173, i64 1
  %.not57 = icmp eq i8 %28, 45
  %.pre.pre = load i8, ptr %29, align 1
  %30 = icmp eq i8 %.pre.pre, 0
  br i1 %.not57, label %.critedge, label %thread-pre-split, !llvm.loop !130

.critedge:                                        ; preds = %.lr.ph75
  br i1 %30, label %.critedge.thread, label %31

.critedge.thread:                                 ; preds = %thread-pre-split, %27, %.critedge
  tail call void @free(ptr noundef %7) #22
  %puts61 = tail call i32 @puts(ptr nonnull dereferenceable(1) @str.9)
  br label %40

31:                                               ; preds = %.critedge
  %32 = tail call i32 @atoi(ptr noundef nonnull %29) #25
  store i32 %32, ptr %3, align 4
  br label %33

33:                                               ; preds = %35, %31
  %.3 = phi ptr [ %29, %31 ], [ %36, %35 ]
  %34 = load i8, ptr %.3, align 1
  %.not58 = icmp eq i8 %34, 0
  br i1 %.not58, label %.critedge2.thread, label %35

35:                                               ; preds = %33
  %36 = getelementptr inbounds nuw i8, ptr %.3, i64 1
  %.not59 = icmp eq i8 %34, 45
  br i1 %.not59, label %.critedge2, label %33, !llvm.loop !131

.critedge2:                                       ; preds = %35
  %.pr62 = load i8, ptr %36, align 1
  %37 = icmp eq i8 %.pr62, 0
  br i1 %37, label %.critedge2.thread, label %38

.critedge2.thread:                                ; preds = %33, %.critedge2
  tail call void @free(ptr noundef %7) #22
  %puts60 = tail call i32 @puts(ptr nonnull dereferenceable(1) @str.8)
  br label %40

38:                                               ; preds = %.critedge2
  %39 = tail call i32 @atoi(ptr noundef nonnull %36) #25
  store i32 %39, ptr %4, align 4
  tail call void @free(ptr noundef %7) #22
  br label %40

40:                                               ; preds = %38, %.critedge2.thread, %.critedge.thread, %26
  %.0 = phi i32 [ 0, %.critedge.thread ], [ 0, %.critedge2.thread ], [ 1, %38 ], [ 0, %26 ]
  ret i32 %.0
}